; Function Attrs: uwtable
define void @_ZTv0_n56_NK5arrow2io15SlowInputStream4TellEv(ptr dead_on_unwind noalias writable sret(%"class.arrow::Result") align 8 %0, ptr noundef readonly captures(none) %1) unnamed_addr #11 align 2 {
  %3 = load ptr, ptr %1, align 8, !tbaa !3
  %4 = getelementptr inbounds i8, ptr %3, i64 -56
  %5 = load i64, ptr %4, align 8
  %6 = getelementptr inbounds i8, ptr %1, i64 %5
  %7 = getelementptr inbounds nuw i8, ptr %6, i64 8
  %8 = load ptr, ptr %7, align 8, !tbaa !43, !noalias !52
  %9 = load ptr, ptr %8, align 8, !tbaa !3, !noalias !52
  %10 = getelementptr i8, ptr %9, i64 -56
  %11 = load i64, ptr %10, align 8, !noalias !52
  %12 = getelementptr inbounds i8, ptr %8, i64 %11
  %13 = load ptr, ptr %12, align 8, !tbaa !3, !noalias !52
  %14 = getelementptr inbounds nuw i8, ptr %13, i64 40
  %15 = load ptr, ptr %14, align 8, !noalias !52
  tail call void %15(ptr dead_on_unwind writable sret(%"class.arrow::Result") align 8 %0, ptr noundef nonnull align 8 dereferenceable(28) %12)
  ret void
}